; Function Attrs: cold nounwind optsize uwtable
define range(i32 -2147483648, 1) i32 @ff_vc1_decode_init(ptr noundef %0) local_unnamed_addr #0 {
  %2 = getelementptr inbounds nuw i8, ptr %0, i64 32
  %3 = load ptr, ptr %2, align 8, !tbaa !4
  %4 = getelementptr inbounds nuw i8, ptr %0, i64 112
  %5 = load i32, ptr %4, align 8, !tbaa !27
  %6 = getelementptr inbounds nuw i8, ptr %0, i64 116
  %7 = load i32, ptr %6, align 4, !tbaa !28
  %8 = tail call i32 @av_image_check_size(i32 noundef %5, i32 noundef %7, i32 noundef 0, ptr noundef %0) #13
  %9 = icmp slt i32 %8, 0
  br i1 %9, label %27, label %10

10:                                               ; preds = %1
  %11 = tail call i32 @ff_mpv_decode_init(ptr noundef %3, ptr noundef nonnull %0) #13
  %12 = icmp slt i32 %11, 0
  br i1 %12, label %27, label %13

13:                                               ; preds = %10
  %14 = getelementptr inbounds nuw i8, ptr %0, i64 24
  %15 = load i32, ptr %14, align 8, !tbaa !29
  switch i32 %15, label %16 [
    i32 166, label %vc1_get_format.exit
    i32 151, label %vc1_get_format.exit
    i32 150, label %vc1_get_format.exit
  ]

16:                                               ; preds = %13
  %17 = tail call i32 @ff_get_format(ptr noundef nonnull %0, ptr noundef nonnull @vc1_hwaccel_pixfmt_list_420) #13
  br label %vc1_get_format.exit

vc1_get_format.exit:                              ; preds = %13, %13, %13, %16
  %.0.i = phi i32 [ %17, %16 ], [ 0, %13 ], [ 0, %13 ], [ 0, %13 ]
  %18 = getelementptr inbounds nuw i8, ptr %0, i64 136
  store i32 %.0.i, ptr %18, align 8, !tbaa !30
  %19 = tail call i32 @ff_mpv_common_init(ptr noundef %3) #13
  %20 = icmp slt i32 %19, 0
  br i1 %20, label %27, label %21

21:                                               ; preds = %vc1_get_format.exit
  %22 = getelementptr inbounds nuw i8, ptr %3, i64 216
  %23 = getelementptr inbounds nuw i8, ptr %3, i64 2056
  tail call void @ff_permute_scantable(ptr noundef nonnull %22, ptr noundef nonnull getelementptr inbounds nuw (i8, ptr @ff_wmv1_scantable, i64 64), ptr noundef nonnull %23) #13
  %24 = tail call fastcc i32 @vc1_decode_init_alloc_tables(ptr noundef %3) #14
  %25 = icmp slt i32 %24, 0
  br i1 %25, label %26, label %27

26:                                               ; preds = %21
  %.val = load ptr, ptr %2, align 8, !tbaa !4
  tail call fastcc void @vc1_decode_reset(ptr %.val)
  br label %27

27:                                               ; preds = %21, %vc1_get_format.exit, %10, %1, %26
  %.0 = phi i32 [ %24, %26 ], [ %8, %1 ], [ %11, %10 ], [ %19, %vc1_get_format.exit ], [ 0, %21 ]
  ret i32 %.0
}